target datalayout = "e-m:e-p270:32:32-p271:32:32-p272:64:64-i64:64-i128:128-f80:128-n8:16:32:64-S128"
target triple = "x86_64-pc-linux-gnu"

%"class.llvm::msgpack::DocNode" = type { ptr, %union.anon }
%union.anon = type { %"class.llvm::StringRef" }
%"class.llvm::StringRef" = type { ptr, i64 }
%"struct.llvm::msgpack::KindAndDocument" = type { ptr, i8 }
%"class.llvm::msgpack::Document" = type <{ %"class.std::vector", %"class.std::vector.0", %"class.std::vector.5", %"class.llvm::msgpack::DocNode", [11 x %"struct.llvm::msgpack::KindAndDocument"], i8, [7 x i8] }>
%"class.std::vector" = type { %"struct.std::_Vector_base" }
%"struct.std::_Vector_base" = type { %"struct.std::_Vector_base<std::unique_ptr<std::map<llvm::msgpack::DocNode, llvm::msgpack::DocNode>>, std::allocator<std::unique_ptr<std::map<llvm::msgpack::DocNode, llvm::msgpack::DocNode>>>>::_Vector_impl" }
%"struct.std::_Vector_base<std::unique_ptr<std::map<llvm::msgpack::DocNode, llvm::msgpack::DocNode>>, std::allocator<std::unique_ptr<std::map<llvm::msgpack::DocNode, llvm::msgpack::DocNode>>>>::_Vector_impl" = type { %"struct.std::_Vector_base<std::unique_ptr<std::map<llvm::msgpack::DocNode, llvm::msgpack::DocNode>>, std::allocator<std::unique_ptr<std::map<llvm::msgpack::DocNode, llvm::msgpack::DocNode>>>>::_Vector_impl_data" }
%"struct.std::_Vector_base<std::unique_ptr<std::map<llvm::msgpack::DocNode, llvm::msgpack::DocNode>>, std::allocator<std::unique_ptr<std::map<llvm::msgpack::DocNode, llvm::msgpack::DocNode>>>>::_Vector_impl_data" = type { ptr, ptr, ptr }
%"class.std::vector.0" = type { %"struct.std::_Vector_base.1" }
%"struct.std::_Vector_base.1" = type { %"struct.std::_Vector_base<std::unique_ptr<std::vector<llvm::msgpack::DocNode>>, std::allocator<std::unique_ptr<std::vector<llvm::msgpack::DocNode>>>>::_Vector_impl" }
%"struct.std::_Vector_base<std::unique_ptr<std::vector<llvm::msgpack::DocNode>>, std::allocator<std::unique_ptr<std::vector<llvm::msgpack::DocNode>>>>::_Vector_impl" = type { %"struct.std::_Vector_base<std::unique_ptr<std::vector<llvm::msgpack::DocNode>>, std::allocator<std::unique_ptr<std::vector<llvm::msgpack::DocNode>>>>::_Vector_impl_data" }
%"struct.std::_Vector_base<std::unique_ptr<std::vector<llvm::msgpack::DocNode>>, std::allocator<std::unique_ptr<std::vector<llvm::msgpack::DocNode>>>>::_Vector_impl_data" = type { ptr, ptr, ptr }
%"class.std::vector.5" = type { %"struct.std::_Vector_base.6" }
%"struct.std::_Vector_base.6" = type { %"struct.std::_Vector_base<std::unique_ptr<char[]>, std::allocator<std::unique_ptr<char[]>>>::_Vector_impl" }
%"struct.std::_Vector_base<std::unique_ptr<char[]>, std::allocator<std::unique_ptr<char[]>>>::_Vector_impl" = type { %"struct.std::_Vector_base<std::unique_ptr<char[]>, std::allocator<std::unique_ptr<char[]>>>::_Vector_impl_data" }
%"struct.std::_Vector_base<std::unique_ptr<char[]>, std::allocator<std::unique_ptr<char[]>>>::_Vector_impl_data" = type { ptr, ptr, ptr }

; Function Attrs: mustprogress nounwind uwtable
define linkonce_odr hidden void @_ZN4llvm7msgpack7DocNodeC2EPKNS0_15KindAndDocumentE(ptr noundef nonnull align 8 dereferenceable(24) %0, ptr noundef %1) unnamed_addr #0 comdat align 2 {
  %3 = alloca ptr, align 8
  %4 = alloca ptr, align 8
  store ptr %0, ptr %3, align 8
  store ptr %1, ptr %4, align 8
  %5 = load ptr, ptr %3, align 8
  %6 = getelementptr inbounds nuw %"class.llvm::msgpack::DocNode", ptr %5, i32 0, i32 0
  %7 = load ptr, ptr %4, align 8
  store ptr %7, ptr %6, align 8
  ret void
}

; Function Attrs: mustprogress nounwind uwtable
define linkonce_odr hidden void @_ZN4llvm7msgpack8Document7getNodeEi(ptr dead_on_unwind noalias writable sret(%"class.llvm::msgpack::DocNode") align 8 %0, ptr noundef nonnull align 8 dereferenceable(273) %1, i32 noundef %2) #0 comdat align 2 {
  %4 = alloca ptr, align 8
  %5 = alloca i32, align 4
  store ptr %1, ptr %4, align 8
  store i32 %2, ptr %5, align 4
  %6 = load ptr, ptr %4, align 8
  %7 = getelementptr inbounds nuw %"class.llvm::msgpack::Document", ptr %6, i32 0, i32 4
  %8 = getelementptr inbounds [11 x %"struct.llvm::msgpack::KindAndDocument"], ptr %7, i64 0, i64 0
  call void @_ZN4llvm7msgpack7DocNodeC2EPKNS0_15KindAndDocumentE(ptr noundef nonnull align 8 dereferenceable(24) %0, ptr noundef %8)
  %9 = load i32, ptr %5, align 4
  %10 = sext i32 %9 to i64
  %11 = getelementptr inbounds nuw %"class.llvm::msgpack::DocNode", ptr %0, i32 0, i32 1
  store i64 %10, ptr %11, align 8
  ret void
}

; Function Attrs: mustprogress nounwind uwtable
define linkonce_odr hidden noundef ptr @_ZNK4llvm7msgpack7DocNode11getDocumentEv(ptr noundef nonnull align 8 dereferenceable(24) %0) #0 comdat align 2 {
  %2 = alloca ptr, align 8
  store ptr %0, ptr %2, align 8
  %3 = load ptr, ptr %2, align 8
  %4 = getelementptr inbounds nuw %"class.llvm::msgpack::DocNode", ptr %3, i32 0, i32 0
  %5 = load ptr, ptr %4, align 8
  %6 = getelementptr inbounds nuw %"struct.llvm::msgpack::KindAndDocument", ptr %5, i32 0, i32 0
  %7 = load ptr, ptr %6, align 8
  ret ptr %7
}

; Function Attrs: mustprogress nounwind uwtable
define dso_local noundef nonnull align 8 dereferenceable(24) ptr @_ZN4llvm7msgpack7DocNodeaSEi(ptr noundef nonnull align 8 dereferenceable(24) %0, i32 noundef %1) #0 align 2 {
  %3 = alloca ptr, align 8
  %4 = alloca i32, align 4
  %5 = alloca %"class.llvm::msgpack::DocNode", align 8
  store ptr %0, ptr %3, align 8
  store i32 %1, ptr %4, align 4
  %6 = load ptr, ptr %3, align 8
  %7 = call noundef ptr @_ZNK4llvm7msgpack7DocNode11getDocumentEv(ptr noundef nonnull align 8 dereferenceable(24) %6)
  %8 = load i32, ptr %4, align 4
  call void @_ZN4llvm7msgpack8Document7getNodeEi(ptr dead_on_unwind writable sret(%"class.llvm::msgpack::DocNode") align 8 %5, ptr noundef nonnull align 8 dereferenceable(273) %7, i32 noundef %8)
  call void @llvm.memcpy.p0.p0.i64(ptr align 8 %6, ptr align 8 %5, i64 24, i1 false)
  ret ptr %6
}