; Function Attrs: mustprogress nofree norecurse nosync nounwind willreturn memory(read, argmem: readwrite, inaccessiblemem: none) uwtable
define dso_local noundef nonnull align 8 dereferenceable(24) ptr @_ZN4llvm7msgpack7DocNodeaSEi(ptr noundef nonnull returned align 8 dereferenceable(24) %0, i32 noundef %1) local_unnamed_addr #3 align 2 {
  %3 = load ptr, ptr %0, align 8
  %4 = load ptr, ptr %3, align 8
  %5 = getelementptr inbounds nuw i8, ptr %4, i64 96
  %6 = sext i32 %1 to i64
  store ptr %5, ptr %0, align 8
  %.sroa.2.0..sroa_idx = getelementptr inbounds i8, ptr %0, i64 8
  store i64 %6, ptr %.sroa.2.0..sroa_idx, align 8
  ret ptr %0
}